target datalayout = "e-m:e-p270:32:32-p271:32:32-p272:64:64-i64:64-i128:128-f80:128-n8:16:32:64-S128"
target triple = "x86_64-pc-linux-gnu"

%struct.RelationData = type { %struct.RelFileLocator, ptr, i32, i32, i8, i8, i8, i8, i8, i32, i32, i32, i32, ptr, ptr, i32, %struct.LockInfoData, ptr, ptr, ptr, ptr, ptr, i8, ptr, ptr, ptr, ptr, ptr, ptr, i32, ptr, i8, ptr, ptr, i32, i8, i32, ptr, i8, ptr, ptr, ptr, ptr, ptr, ptr, ptr, i32, ptr, ptr, ptr, ptr, ptr, ptr, ptr, ptr, ptr, ptr, ptr, ptr, ptr, ptr, ptr, ptr, ptr, ptr, ptr, i32, i8, ptr }
%struct.RelFileLocator = type { i32, i32, i32 }
%struct.LockInfoData = type { %struct.LockRelId }
%struct.LockRelId = type { i32, i32 }
%struct.FormData_pg_class = type { i32, %struct.nameData, i32, i32, i32, i32, i32, i32, i32, i32, float, i32, i32, i8, i8, i8, i8, i16, i16, i8, i8, i8, i8, i8, i8, i8, i8, i32, i32, i32 }
%struct.nameData = type { [64 x i8] }

@gistGetFakeLSN.counter = internal global i64 1000, align 8
@gistGetFakeLSN.lastlsn = internal global i64 0, align 8

; Function Attrs: nounwind uwtable
define dso_local i64 @gistGetFakeLSN(ptr noundef %0) #0 {
  %2 = alloca i64, align 8
  %3 = alloca ptr, align 8
  %4 = alloca i64, align 8
  store ptr %0, ptr %3, align 8
  %5 = load ptr, ptr %3, align 8
  %6 = getelementptr inbounds nuw %struct.RelationData, ptr %5, i32 0, i32 13
  %7 = load ptr, ptr %6, align 8
  %8 = getelementptr inbounds nuw %struct.FormData_pg_class, ptr %7, i32 0, i32 15
  %9 = load i8, ptr %8, align 2
  %10 = sext i8 %9 to i32
  %11 = icmp eq i32 %10, 116
  br i1 %11, label %12, label %15

12:                                               ; preds = %1
  %13 = load i64, ptr @gistGetFakeLSN.counter, align 8
  %14 = add i64 %13, 1
  store i64 %14, ptr @gistGetFakeLSN.counter, align 8
  store i64 %13, ptr %2, align 8
  br label %38

15:                                               ; preds = %1
  %16 = load ptr, ptr %3, align 8
  %17 = getelementptr inbounds nuw %struct.RelationData, ptr %16, i32 0, i32 13
  %18 = load ptr, ptr %17, align 8
  %19 = getelementptr inbounds nuw %struct.FormData_pg_class, ptr %18, i32 0, i32 15
  %20 = load i8, ptr %19, align 2
  %21 = sext i8 %20 to i32
  %22 = icmp eq i32 %21, 112
  br i1 %22, label %23, label %36

23:                                               ; preds = %15
  call void @llvm.lifetime.start.p0(i64 8, ptr %4) #8
  %24 = call i64 @GetXLogInsertRecPtr()
  store i64 %24, ptr %4, align 8
  %25 = load i64, ptr @gistGetFakeLSN.lastlsn, align 8
  %26 = icmp eq i64 %25, 0
  br i1 %26, label %33, label %27

27:                                               ; preds = %23
  %28 = load i64, ptr @gistGetFakeLSN.lastlsn, align 8
  %29 = load i64, ptr %4, align 8
  %30 = icmp eq i64 %28, %29
  br i1 %30, label %31, label %33

31:                                               ; preds = %27
  %32 = call i64 @gistXLogAssignLSN()
  store i64 %32, ptr %4, align 8
  br label %33

33:                                               ; preds = %31, %27, %23
  %34 = load i64, ptr %4, align 8
  store i64 %34, ptr @gistGetFakeLSN.lastlsn, align 8
  %35 = load i64, ptr %4, align 8
  store i64 %35, ptr %2, align 8
  call void @llvm.lifetime.end.p0(i64 8, ptr %4) #8
  br label %38

36:                                               ; preds = %15
  %37 = call i64 @GetFakeLSNForUnloggedRel()
  store i64 %37, ptr %2, align 8
  br label %38

38:                                               ; preds = %36, %33, %12
  %39 = load i64, ptr %2, align 8
  ret i64 %39
}