; Function Attrs: nounwind uwtable
define dso_local i64 @gistGetFakeLSN(ptr noundef readonly captures(none) %0) local_unnamed_addr #0 {
  %2 = getelementptr inbounds nuw i8, ptr %0, i64 56
  %3 = load ptr, ptr %2, align 8
  %4 = getelementptr inbounds nuw i8, ptr %3, i64 114
  %5 = load i8, ptr %4, align 2
  switch i8 %5, label %17 [
    i8 116, label %6
    i8 112, label %9
  ]

6:                                                ; preds = %1
  %7 = load i64, ptr @gistGetFakeLSN.counter, align 8
  %8 = add i64 %7, 1
  store i64 %8, ptr @gistGetFakeLSN.counter, align 8
  br label %19

9:                                                ; preds = %1
  %10 = tail call i64 @GetXLogInsertRecPtr() #11
  %11 = load i64, ptr @gistGetFakeLSN.lastlsn, align 8
  %12 = icmp ne i64 %11, 0
  %13 = icmp eq i64 %11, %10
  %or.cond = select i1 %12, i1 %13, i1 false
  br i1 %or.cond, label %14, label %16

14:                                               ; preds = %9
  %15 = tail call i64 @gistXLogAssignLSN() #11
  br label %16

16:                                               ; preds = %14, %9
  %.0 = phi i64 [ %10, %9 ], [ %15, %14 ]
  store i64 %.0, ptr @gistGetFakeLSN.lastlsn, align 8
  br label %19

17:                                               ; preds = %1
  %18 = tail call i64 @GetFakeLSNForUnloggedRel() #11
  br label %19

19:                                               ; preds = %17, %16, %6
  %.05 = phi i64 [ %7, %6 ], [ %.0, %16 ], [ %18, %17 ]
  ret i64 %.05
}